; Function Attrs: nofree norecurse nosync nounwind memory(argmem: readwrite) uwtable
define hidden void @loadcompressed128(ptr noundef writeonly captures(none) %0, ptr noundef readonly captures(none) %1, ptr noundef readonly captures(none) %2, i32 noundef %3) local_unnamed_addr #2 {
  %.sroa.0 = alloca i64, align 16
  %.sroa.4 = alloca i64, align 8
  %5 = load <2 x i64>, ptr %2, align 16
  %6 = extractelement <2 x i64> %5, i64 0
  %7 = extractelement <2 x i64> %5, i64 1
  %8 = tail call range(i64 0, 65) i64 @llvm.ctpop.i64(i64 %6)
  %9 = tail call range(i64 0, 65) i64 @llvm.ctpop.i64(i64 %7)
  call void @llvm.lifetime.start.p0(i64 8, ptr nonnull %.sroa.0)
  call void @llvm.lifetime.start.p0(i64 8, ptr nonnull %.sroa.4)
  br label %10

10:                                               ; preds = %4, %._crit_edge
  %11 = phi i1 [ true, %4 ], [ false, %._crit_edge ]
  %indvars.iv.sroa.phi = phi ptr [ %.sroa.0, %4 ], [ %.sroa.4, %._crit_edge ]
  %indvars.iv.sroa.phi55.sroa.speculated.in = phi i64 [ %8, %4 ], [ %9, %._crit_edge ]
  %.0.i13 = phi ptr [ %1, %4 ], [ %.1.i.lcssa, %._crit_edge ]
  %.032.i12 = phi i32 [ 0, %4 ], [ %.133.i.lcssa, %._crit_edge ]
  %.not.i3 = icmp eq i64 %indvars.iv.sroa.phi55.sroa.speculated.in, 0
  br i1 %.not.i3, label %._crit_edge, label %.lr.ph.preheader

.lr.ph.preheader:                                 ; preds = %10
  %indvars.iv.sroa.phi55.sroa.speculated = trunc nuw nsw i64 %indvars.iv.sroa.phi55.sroa.speculated.in to i32
  br label %.lr.ph

.lr.ph:                                           ; preds = %.lr.ph.preheader, %25
  %.1.i8 = phi ptr [ %32, %25 ], [ %.0.i13, %.lr.ph.preheader ]
  %.133.i7 = phi i32 [ 0, %25 ], [ %.032.i12, %.lr.ph.preheader ]
  %.036.i6 = phi i32 [ %30, %25 ], [ 0, %.lr.ph.preheader ]
  %.039.i5 = phi i32 [ %31, %25 ], [ %indvars.iv.sroa.phi55.sroa.speculated, %.lr.ph.preheader ]
  %.042.i4 = phi i64 [ %29, %25 ], [ 0, %.lr.ph.preheader ]
  %12 = load i8, ptr %.1.i8, align 1
  %13 = zext i8 %12 to i32
  %14 = lshr i32 %13, %.133.i7
  %15 = sub i32 8, %.133.i7
  %.not47.i = icmp ugt i32 %.039.i5, %15
  br i1 %.not47.i, label %25, label %16

16:                                               ; preds = %.lr.ph
  %notmask.i = shl nsw i32 -1, %.039.i5
  %17 = xor i32 %notmask.i, -1
  %18 = and i32 %14, %17
  %19 = zext nneg i32 %18 to i64
  %20 = zext nneg i32 %.036.i6 to i64
  %21 = shl i64 %19, %20
  %22 = or i64 %21, %.042.i4
  %23 = add i32 %.133.i7, %.039.i5
  %24 = icmp ugt i32 %23, 7
  %spec.select = select i1 %24, i32 0, i32 %23
  %spec.select37.idx = zext i1 %24 to i64
  %spec.select37 = getelementptr inbounds nuw i8, ptr %.1.i8, i64 %spec.select37.idx
  br label %._crit_edge

25:                                               ; preds = %.lr.ph
  %26 = zext nneg i32 %14 to i64
  %27 = zext nneg i32 %.036.i6 to i64
  %28 = shl i64 %26, %27
  %29 = or i64 %28, %.042.i4
  %30 = add i32 %15, %.036.i6
  %31 = sub nuw i32 %.039.i5, %15
  %32 = getelementptr inbounds nuw i8, ptr %.1.i8, i64 1
  %.not.i = icmp eq i32 %31, 0
  br i1 %.not.i, label %._crit_edge, label %.lr.ph

._crit_edge:                                      ; preds = %25, %16, %10
  %.042.i.lcssa = phi i64 [ 0, %10 ], [ %22, %16 ], [ %29, %25 ]
  %.133.i.lcssa = phi i32 [ %.032.i12, %10 ], [ %spec.select, %16 ], [ 0, %25 ]
  %.1.i.lcssa = phi ptr [ %.0.i13, %10 ], [ %spec.select37, %16 ], [ %32, %25 ]
  store i64 %.042.i.lcssa, ptr %indvars.iv.sroa.phi, align 8
  br i1 %11, label %10, label %unpack_bits_64.exit

unpack_bits_64.exit:                              ; preds = %._crit_edge
  %.sroa.0.0..sroa.0.0. = load i64, ptr %.sroa.0, align 16
  %33 = tail call i64 @llvm.x86.bmi.pdep.64(i64 %.sroa.0.0..sroa.0.0., i64 %6)
  %.sroa.4.0..sroa.4.8. = load i64, ptr %.sroa.4, align 8
  %34 = tail call i64 @llvm.x86.bmi.pdep.64(i64 %.sroa.4.0..sroa.4.8., i64 %7)
  %35 = insertelement <2 x i64> poison, i64 %33, i64 0
  %36 = insertelement <2 x i64> %35, i64 %34, i64 1
  call void @llvm.lifetime.end.p0(i64 8, ptr nonnull %.sroa.0)
  call void @llvm.lifetime.end.p0(i64 8, ptr nonnull %.sroa.4)
  store <2 x i64> %36, ptr %0, align 16
  ret void
}